target datalayout = "e-m:e-p270:32:32-p271:32:32-p272:64:64-i64:64-i128:128-f80:128-n8:16:32:64-S128"
target triple = "x86_64-pc-linux-gnu"

%struct.ssl_cipher_st = type { i32, ptr, ptr, i32, i32, i32, i32, i32, i32, i32, i32, i32, i32, i32, i32, i32 }
%struct.ssl_connection_st = type { %struct.ssl_st, ptr, i32, ptr, ptr, ptr, i32, ptr, i32, i32, i32, i32, %struct.OSSL_TIME, %struct.OSSL_TIME, %struct.ossl_statem_st, i32, ptr, ptr, i64, i64, i64, %struct.ossl_quic_tls_callbacks_st, ptr, ptr, %struct.anon, ptr, ptr, ptr, i32, ptr, %struct.ssl_dane_st, ptr, ptr, ptr, ptr, i32, [64 x i8], [64 x i8], [64 x i8], [64 x i8], [64 x i8], [64 x i8], [64 x i8], [64 x i8], [64 x i8], [64 x i8], [64 x i8], [64 x i8], ptr, [64 x i8], i64, i32, i64, [32 x i8], ptr, ptr, ptr, i64, ptr, [32 x i8], i64, i32, ptr, ptr, i32, i32, ptr, ptr, ptr, ptr, ptr, i64, ptr, ptr, i64, i32, i32, i32, i64, i32, i32, i64, i64, i64, %struct.anon.1, ptr, i32, ptr, ptr, ptr, i32, ptr, ptr, ptr, i32, i32, i32, i32, ptr, i64, i32, ptr, %struct.srp_ctx_st, ptr, %struct.record_layer_st, ptr, ptr, ptr, ptr, i64, i32, i32, i32, i64, i64, i64, ptr, ptr, ptr, ptr, ptr, i64, ptr, i64, ptr, i64 }
%struct.ssl_st = type { i32, ptr, ptr, ptr, %struct.CRYPTO_REF_COUNT, ptr, %struct.crypto_ex_data_st }
%struct.CRYPTO_REF_COUNT = type { i32 }
%struct.crypto_ex_data_st = type { ptr, ptr }
%struct.OSSL_TIME = type { i64 }
%struct.ossl_statem_st = type { i32, i32, i32, i32, i32, i32, i32, i32, i32, i32, i32, i32, i32, ptr, ptr, ptr, i8 }
%struct.ossl_quic_tls_callbacks_st = type { ptr, ptr, ptr, ptr, ptr, ptr }
%struct.anon = type { i64, [32 x i8], [32 x i8], ptr, ptr, i32, i32, i32, i32, [2 x i8], i32, i32, i32, i32, %struct.anon.0, [64 x i8], i64, [64 x i8], i64, i32, i32, ptr, i64, ptr, i64, i32, i8, i8, i16, ptr, i16 }
%struct.anon.0 = type { [128 x i8], i64, [128 x i8], i64, i64, i32, ptr, ptr, [4 x ptr], [4 x i16], i64, i32, ptr, i64, ptr, i64, ptr, ptr, ptr, i32, i64, ptr, i32, ptr, i64, ptr, i64, ptr, i64, ptr, ptr, ptr, ptr, i64, i64, ptr, ptr, i32, i32, i32, i32 }
%struct.ssl_dane_st = type { ptr, ptr, ptr, ptr, ptr, i32, i32, i32, i64 }
%struct.anon.1 = type { [29 x i8], ptr, ptr, ptr, i32, ptr, i16, i32, %struct.anon.2, i32, i32, i64, ptr, i64, ptr, i64, ptr, i64, ptr, i64, ptr, i64, ptr, ptr, ptr, ptr, ptr, ptr, ptr, i64, ptr, i64, i32, i32, i32, i32, ptr, i64, i32, i8, i32, [4 x i32], i32, i8, i8, i8, i8 }
%struct.anon.2 = type { ptr, ptr, ptr, i64 }
%struct.srp_ctx_st = type { ptr, ptr, ptr, ptr, ptr, ptr, ptr, ptr, ptr, ptr, ptr, ptr, ptr, ptr, i32, i64 }
%struct.record_layer_st = type { ptr, ptr, ptr, ptr, ptr, ptr, ptr, ptr, i64, i32, i64, [4 x i8], i64, i64, i8, ptr, i32, ptr, ptr, ptr, i64, i64, i64, i64, [32 x %struct.tls_record_st] }
%struct.tls_record_st = type { ptr, i32, i8, ptr, ptr, i64, i64, i16, [8 x i8] }
%struct.cert_st = type { ptr, ptr, ptr, i32, i32, ptr, i64, ptr, i64, ptr, i64, ptr, i64, ptr, ptr, ptr, ptr, %struct.custom_ext_methods, ptr, i32, ptr, ptr, %struct.CRYPTO_REF_COUNT }
%struct.custom_ext_methods = type { ptr, i64 }

; Function Attrs: nounwind uwtable
define i32 @ssl3_get_req_cert_type(ptr noundef %0, ptr noundef %1) #0 {
  %3 = alloca i32, align 4
  %4 = alloca ptr, align 8
  %5 = alloca ptr, align 8
  %6 = alloca i32, align 4
  %7 = alloca i32, align 4
  %8 = alloca i32, align 4
  store ptr %0, ptr %4, align 8, !tbaa !13
  store ptr %1, ptr %5, align 8, !tbaa !19
  call void @llvm.lifetime.start.p0(i64 4, ptr %6) #10
  call void @llvm.lifetime.start.p0(i64 4, ptr %7) #10
  store i32 0, ptr %7, align 4, !tbaa !18
  %9 = load ptr, ptr %4, align 8, !tbaa !13
  %10 = getelementptr inbounds nuw %struct.ssl_connection_st, ptr %9, i32 0, i32 48
  %11 = load ptr, ptr %10, align 8, !tbaa !113
  %12 = getelementptr inbounds nuw %struct.cert_st, ptr %11, i32 0, i32 7
  %13 = load ptr, ptr %12, align 8, !tbaa !170
  %14 = icmp ne ptr %13, null
  br i1 %14, label %15, label %28

15:                                               ; preds = %2
  %16 = load ptr, ptr %5, align 8, !tbaa !19
  %17 = load ptr, ptr %4, align 8, !tbaa !13
  %18 = getelementptr inbounds nuw %struct.ssl_connection_st, ptr %17, i32 0, i32 48
  %19 = load ptr, ptr %18, align 8, !tbaa !113
  %20 = getelementptr inbounds nuw %struct.cert_st, ptr %19, i32 0, i32 7
  %21 = load ptr, ptr %20, align 8, !tbaa !170
  %22 = load ptr, ptr %4, align 8, !tbaa !13
  %23 = getelementptr inbounds nuw %struct.ssl_connection_st, ptr %22, i32 0, i32 48
  %24 = load ptr, ptr %23, align 8, !tbaa !113
  %25 = getelementptr inbounds nuw %struct.cert_st, ptr %24, i32 0, i32 8
  %26 = load i64, ptr %25, align 8, !tbaa !171
  %27 = call i32 @WPACKET_memcpy(ptr noundef %16, ptr noundef %21, i64 noundef %26)
  store i32 %27, ptr %3, align 4
  store i32 1, ptr %8, align 4
  br label %143

28:                                               ; preds = %2
  %29 = load ptr, ptr %4, align 8, !tbaa !13
  call void @ssl_set_sig_mask(ptr noundef %7, ptr noundef %29, i32 noundef 327694)
  %30 = load ptr, ptr %4, align 8, !tbaa !13
  %31 = getelementptr inbounds nuw %struct.ssl_connection_st, ptr %30, i32 0, i32 24
  %32 = getelementptr inbounds nuw %struct.anon, ptr %31, i32 0, i32 14
  %33 = getelementptr inbounds nuw %struct.anon.0, ptr %32, i32 0, i32 6
  %34 = load ptr, ptr %33, align 8, !tbaa !132
  %35 = getelementptr inbounds nuw %struct.ssl_cipher_st, ptr %34, i32 0, i32 4
  %36 = load i32, ptr %35, align 4, !tbaa !237
  store i32 %36, ptr %6, align 4, !tbaa !18
  %37 = load ptr, ptr %4, align 8, !tbaa !13
  %38 = getelementptr inbounds nuw %struct.ssl_connection_st, ptr %37, i32 0, i32 2
  %39 = load i32, ptr %38, align 8, !tbaa !108
  %40 = icmp sge i32 %39, 769
  br i1 %40, label %41, label %67

41:                                               ; preds = %28
  %42 = load i32, ptr %6, align 4, !tbaa !18
  %43 = and i32 %42, 16
  %44 = icmp ne i32 %43, 0
  br i1 %44, label %45, label %67

45:                                               ; preds = %41
  %46 = load ptr, ptr %5, align 8, !tbaa !19
  %47 = call i32 @WPACKET_put_bytes__(ptr noundef %46, i64 noundef 22, i64 noundef 1)
  %48 = icmp ne i32 %47, 0
  br i1 %48, label %49, label %65

49:                                               ; preds = %45
  %50 = load ptr, ptr %5, align 8, !tbaa !19
  %51 = call i32 @WPACKET_put_bytes__(ptr noundef %50, i64 noundef 67, i64 noundef 1)
  %52 = icmp ne i32 %51, 0
  br i1 %52, label %53, label %65

53:                                               ; preds = %49
  %54 = load ptr, ptr %5, align 8, !tbaa !19
  %55 = call i32 @WPACKET_put_bytes__(ptr noundef %54, i64 noundef 68, i64 noundef 1)
  %56 = icmp ne i32 %55, 0
  br i1 %56, label %57, label %65

57:                                               ; preds = %53
  %58 = load ptr, ptr %5, align 8, !tbaa !19
  %59 = call i32 @WPACKET_put_bytes__(ptr noundef %58, i64 noundef 238, i64 noundef 1)
  %60 = icmp ne i32 %59, 0
  br i1 %60, label %61, label %65

61:                                               ; preds = %57
  %62 = load ptr, ptr %5, align 8, !tbaa !19
  %63 = call i32 @WPACKET_put_bytes__(ptr noundef %62, i64 noundef 239, i64 noundef 1)
  %64 = icmp ne i32 %63, 0
  br i1 %64, label %66, label %65

65:                                               ; preds = %61, %57, %53, %49, %45
  store i32 0, ptr %3, align 4
  store i32 1, ptr %8, align 4
  br label %143

66:                                               ; preds = %61
  br label %67

67:                                               ; preds = %66, %41, %28
  %68 = load ptr, ptr %4, align 8, !tbaa !13
  %69 = getelementptr inbounds nuw %struct.ssl_connection_st, ptr %68, i32 0, i32 2
  %70 = load i32, ptr %69, align 8, !tbaa !108
  %71 = icmp sge i32 %70, 771
  br i1 %71, label %72, label %86

72:                                               ; preds = %67
  %73 = load i32, ptr %6, align 4, !tbaa !18
  %74 = and i32 %73, 512
  %75 = icmp ne i32 %74, 0
  br i1 %75, label %76, label %86

76:                                               ; preds = %72
  %77 = load ptr, ptr %5, align 8, !tbaa !19
  %78 = call i32 @WPACKET_put_bytes__(ptr noundef %77, i64 noundef 67, i64 noundef 1)
  %79 = icmp ne i32 %78, 0
  br i1 %79, label %80, label %84

80:                                               ; preds = %76
  %81 = load ptr, ptr %5, align 8, !tbaa !19
  %82 = call i32 @WPACKET_put_bytes__(ptr noundef %81, i64 noundef 68, i64 noundef 1)
  %83 = icmp ne i32 %82, 0
  br i1 %83, label %85, label %84

84:                                               ; preds = %80, %76
  store i32 0, ptr %3, align 4
  store i32 1, ptr %8, align 4
  br label %143

85:                                               ; preds = %80
  br label %86

86:                                               ; preds = %85, %72, %67
  %87 = load ptr, ptr %4, align 8, !tbaa !13
  %88 = getelementptr inbounds nuw %struct.ssl_connection_st, ptr %87, i32 0, i32 2
  %89 = load i32, ptr %88, align 8, !tbaa !108
  %90 = icmp eq i32 %89, 768
  br i1 %90, label %91, label %110

91:                                               ; preds = %86
  %92 = load i32, ptr %6, align 4, !tbaa !18
  %93 = and i32 %92, 2
  %94 = icmp ne i32 %93, 0
  br i1 %94, label %95, label %110

95:                                               ; preds = %91
  %96 = load ptr, ptr %5, align 8, !tbaa !19
  %97 = call i32 @WPACKET_put_bytes__(ptr noundef %96, i64 noundef 5, i64 noundef 1)
  %98 = icmp ne i32 %97, 0
  br i1 %98, label %100, label %99

99:                                               ; preds = %95
  store i32 0, ptr %3, align 4
  store i32 1, ptr %8, align 4
  br label %143

100:                                              ; preds = %95
  %101 = load i32, ptr %7, align 4, !tbaa !18
  %102 = and i32 %101, 2
  %103 = icmp ne i32 %102, 0
  br i1 %103, label %109, label %104

104:                                              ; preds = %100
  %105 = load ptr, ptr %5, align 8, !tbaa !19
  %106 = call i32 @WPACKET_put_bytes__(ptr noundef %105, i64 noundef 6, i64 noundef 1)
  %107 = icmp ne i32 %106, 0
  br i1 %107, label %109, label %108

108:                                              ; preds = %104
  store i32 0, ptr %3, align 4
  store i32 1, ptr %8, align 4
  br label %143

109:                                              ; preds = %104, %100
  br label %110

110:                                              ; preds = %109, %91, %86
  %111 = load i32, ptr %7, align 4, !tbaa !18
  %112 = and i32 %111, 1
  %113 = icmp ne i32 %112, 0
  br i1 %113, label %119, label %114

114:                                              ; preds = %110
  %115 = load ptr, ptr %5, align 8, !tbaa !19
  %116 = call i32 @WPACKET_put_bytes__(ptr noundef %115, i64 noundef 1, i64 noundef 1)
  %117 = icmp ne i32 %116, 0
  br i1 %117, label %119, label %118

118:                                              ; preds = %114
  store i32 0, ptr %3, align 4
  store i32 1, ptr %8, align 4
  br label %143

119:                                              ; preds = %114, %110
  %120 = load i32, ptr %7, align 4, !tbaa !18
  %121 = and i32 %120, 2
  %122 = icmp ne i32 %121, 0
  br i1 %122, label %128, label %123

123:                                              ; preds = %119
  %124 = load ptr, ptr %5, align 8, !tbaa !19
  %125 = call i32 @WPACKET_put_bytes__(ptr noundef %124, i64 noundef 2, i64 noundef 1)
  %126 = icmp ne i32 %125, 0
  br i1 %126, label %128, label %127

127:                                              ; preds = %123
  store i32 0, ptr %3, align 4
  store i32 1, ptr %8, align 4
  br label %143

128:                                              ; preds = %123, %119
  %129 = load ptr, ptr %4, align 8, !tbaa !13
  %130 = getelementptr inbounds nuw %struct.ssl_connection_st, ptr %129, i32 0, i32 2
  %131 = load i32, ptr %130, align 8, !tbaa !108
  %132 = icmp sge i32 %131, 769
  br i1 %132, label %133, label %142

133:                                              ; preds = %128
  %134 = load i32, ptr %7, align 4, !tbaa !18
  %135 = and i32 %134, 8
  %136 = icmp ne i32 %135, 0
  br i1 %136, label %142, label %137

137:                                              ; preds = %133
  %138 = load ptr, ptr %5, align 8, !tbaa !19
  %139 = call i32 @WPACKET_put_bytes__(ptr noundef %138, i64 noundef 64, i64 noundef 1)
  %140 = icmp ne i32 %139, 0
  br i1 %140, label %142, label %141

141:                                              ; preds = %137
  store i32 0, ptr %3, align 4
  store i32 1, ptr %8, align 4
  br label %143

142:                                              ; preds = %137, %133, %128
  store i32 1, ptr %3, align 4
  store i32 1, ptr %8, align 4
  br label %143

143:                                              ; preds = %142, %141, %127, %118, %108, %99, %84, %65, %15
  call void @llvm.lifetime.end.p0(i64 4, ptr %7) #10
  call void @llvm.lifetime.end.p0(i64 4, ptr %6) #10
  %144 = load i32, ptr %3, align 4
  ret i32 %144
}