; Function Attrs: nounwind uwtable
define i32 @ssl3_get_req_cert_type(ptr noundef %0, ptr noundef %1) local_unnamed_addr #4 {
  %3 = alloca i32, align 4
  call void @llvm.lifetime.start.p0(i64 4, ptr nonnull %3) #18
  store i32 0, ptr %3, align 4, !tbaa !131
  %4 = getelementptr inbounds nuw i8, ptr %0, i64 2176
  %5 = load ptr, ptr %4, align 8, !tbaa !101
  %6 = getelementptr inbounds nuw i8, ptr %5, i64 48
  %7 = load ptr, ptr %6, align 8, !tbaa !154
  %.not = icmp eq ptr %7, null
  br i1 %.not, label %12, label %8

8:                                                ; preds = %2
  %9 = getelementptr inbounds nuw i8, ptr %5, i64 56
  %10 = load i64, ptr %9, align 8, !tbaa !155
  %11 = tail call i32 @WPACKET_memcpy(ptr noundef %1, ptr noundef nonnull %7, i64 noundef %10) #18
  br label %69

12:                                               ; preds = %2
  call void @ssl_set_sig_mask(ptr noundef nonnull %3, ptr noundef nonnull %0, i32 noundef 327694) #18
  %13 = getelementptr inbounds nuw i8, ptr %0, i64 768
  %14 = load ptr, ptr %13, align 8, !tbaa !121
  %15 = getelementptr inbounds nuw i8, ptr %14, i64 28
  %16 = load i32, ptr %15, align 4, !tbaa !219
  %17 = getelementptr inbounds nuw i8, ptr %0, i64 72
  %18 = load i32, ptr %17, align 8, !tbaa !97
  %19 = icmp slt i32 %18, 769
  %20 = and i32 %16, 16
  %.not26 = icmp eq i32 %20, 0
  %or.cond = select i1 %19, i1 true, i1 %.not26
  br i1 %or.cond, label %31, label %21

21:                                               ; preds = %12
  %22 = call i32 @WPACKET_put_bytes__(ptr noundef %1, i64 noundef 22, i64 noundef 1) #18
  %.not27 = icmp eq i32 %22, 0
  br i1 %.not27, label %69, label %23

23:                                               ; preds = %21
  %24 = call i32 @WPACKET_put_bytes__(ptr noundef %1, i64 noundef 67, i64 noundef 1) #18
  %.not28 = icmp eq i32 %24, 0
  br i1 %.not28, label %69, label %25

25:                                               ; preds = %23
  %26 = call i32 @WPACKET_put_bytes__(ptr noundef %1, i64 noundef 68, i64 noundef 1) #18
  %.not29 = icmp eq i32 %26, 0
  br i1 %.not29, label %69, label %27

27:                                               ; preds = %25
  %28 = call i32 @WPACKET_put_bytes__(ptr noundef %1, i64 noundef 238, i64 noundef 1) #18
  %.not30 = icmp eq i32 %28, 0
  br i1 %.not30, label %69, label %29

29:                                               ; preds = %27
  %30 = call i32 @WPACKET_put_bytes__(ptr noundef %1, i64 noundef 239, i64 noundef 1) #18
  %.not31 = icmp eq i32 %30, 0
  br i1 %.not31, label %69, label %._crit_edge

._crit_edge:                                      ; preds = %29
  %.pre = load i32, ptr %17, align 8, !tbaa !97
  br label %31

31:                                               ; preds = %._crit_edge, %12
  %32 = phi i32 [ %.pre, %._crit_edge ], [ %18, %12 ]
  %33 = icmp slt i32 %32, 771
  %34 = and i32 %16, 512
  %.not32 = icmp eq i32 %34, 0
  %or.cond45 = select i1 %33, i1 true, i1 %.not32
  br i1 %or.cond45, label %39, label %35

35:                                               ; preds = %31
  %36 = call i32 @WPACKET_put_bytes__(ptr noundef %1, i64 noundef 67, i64 noundef 1) #18
  %.not33 = icmp eq i32 %36, 0
  br i1 %.not33, label %69, label %37

37:                                               ; preds = %35
  %38 = call i32 @WPACKET_put_bytes__(ptr noundef %1, i64 noundef 68, i64 noundef 1) #18
  %.not34 = icmp eq i32 %38, 0
  br i1 %.not34, label %69, label %._crit_edge47

._crit_edge47:                                    ; preds = %37
  %.pre48 = load i32, ptr %17, align 8, !tbaa !97
  br label %39

39:                                               ; preds = %._crit_edge47, %31
  %40 = phi i32 [ %.pre48, %._crit_edge47 ], [ %32, %31 ]
  %41 = icmp ne i32 %40, 768
  %42 = and i32 %16, 2
  %.not35 = icmp eq i32 %42, 0
  %or.cond46 = select i1 %41, i1 true, i1 %.not35
  br i1 %or.cond46, label %50, label %43

43:                                               ; preds = %39
  %44 = call i32 @WPACKET_put_bytes__(ptr noundef %1, i64 noundef 5, i64 noundef 1) #18
  %.not36 = icmp eq i32 %44, 0
  br i1 %.not36, label %69, label %45

45:                                               ; preds = %43
  %46 = load i32, ptr %3, align 4, !tbaa !131
  %47 = and i32 %46, 2
  %.not37 = icmp eq i32 %47, 0
  br i1 %.not37, label %48, label %50

48:                                               ; preds = %45
  %49 = call i32 @WPACKET_put_bytes__(ptr noundef %1, i64 noundef 6, i64 noundef 1) #18
  %.not38 = icmp eq i32 %49, 0
  br i1 %.not38, label %69, label %50

50:                                               ; preds = %45, %48, %39
  %51 = load i32, ptr %3, align 4, !tbaa !131
  %52 = and i32 %51, 1
  %.not39 = icmp eq i32 %52, 0
  br i1 %.not39, label %53, label %55

53:                                               ; preds = %50
  %54 = call i32 @WPACKET_put_bytes__(ptr noundef %1, i64 noundef 1, i64 noundef 1) #18
  %.not40 = icmp eq i32 %54, 0
  br i1 %.not40, label %69, label %._crit_edge49

._crit_edge49:                                    ; preds = %53
  %.pre50 = load i32, ptr %3, align 4, !tbaa !131
  br label %55

55:                                               ; preds = %._crit_edge49, %50
  %56 = phi i32 [ %.pre50, %._crit_edge49 ], [ %51, %50 ]
  %57 = and i32 %56, 2
  %.not41 = icmp eq i32 %57, 0
  br i1 %.not41, label %58, label %60

58:                                               ; preds = %55
  %59 = call i32 @WPACKET_put_bytes__(ptr noundef %1, i64 noundef 2, i64 noundef 1) #18
  %.not42 = icmp eq i32 %59, 0
  br i1 %.not42, label %69, label %60

60:                                               ; preds = %58, %55
  %61 = load i32, ptr %17, align 8, !tbaa !97
  %62 = icmp sgt i32 %61, 768
  br i1 %62, label %63, label %68

63:                                               ; preds = %60
  %64 = load i32, ptr %3, align 4, !tbaa !131
  %65 = and i32 %64, 8
  %.not43 = icmp eq i32 %65, 0
  br i1 %.not43, label %66, label %68

66:                                               ; preds = %63
  %67 = call i32 @WPACKET_put_bytes__(ptr noundef %1, i64 noundef 64, i64 noundef 1) #18
  %.not44 = icmp eq i32 %67, 0
  br i1 %.not44, label %69, label %68

68:                                               ; preds = %66, %63, %60
  br label %69

69:                                               ; preds = %66, %58, %53, %48, %43, %35, %37, %21, %23, %25, %27, %29, %68, %8
  %.0 = phi i32 [ %11, %8 ], [ 1, %68 ], [ 0, %29 ], [ 0, %27 ], [ 0, %25 ], [ 0, %23 ], [ 0, %21 ], [ 0, %37 ], [ 0, %35 ], [ 0, %43 ], [ 0, %48 ], [ 0, %53 ], [ 0, %58 ], [ 0, %66 ]
  call void @llvm.lifetime.end.p0(i64 4, ptr nonnull %3) #18
  ret i32 %.0
}